; Function Attrs: nounwind uwtable
define noalias noundef ptr @Abc_ManReadBinary(ptr noundef %0, ptr noundef readonly captures(none) %1) local_unnamed_addr #2 {
  %3 = tail call ptr @Abc_ManReadFile(ptr noundef %0)
  %4 = icmp eq ptr %3, null
  br i1 %4, label %76, label %5

5:                                                ; preds = %2
  %6 = getelementptr i8, ptr %3, i64 8
  %.val = load ptr, ptr %6, align 8
  %7 = tail call ptr @strstr(ptr noundef nonnull dereferenceable(1) %.val, ptr noundef nonnull dereferenceable(1) %1) #13
  %.not = icmp eq ptr %7, null
  br i1 %.not, label %thread-pre-split.thread, label %8

8:                                                ; preds = %5
  %9 = tail call i64 @strlen(ptr noundef nonnull dereferenceable(1) %1) #13
  %10 = getelementptr inbounds i8, ptr %7, i64 %9
  %11 = tail call noalias dereferenceable_or_null(16) ptr @malloc(i64 noundef 16) #14
  %12 = getelementptr inbounds nuw i8, ptr %11, i64 4
  store i32 0, ptr %12, align 4
  store i32 100, ptr %11, align 8
  %13 = tail call noalias dereferenceable_or_null(400) ptr @malloc(i64 noundef 400) #14
  %14 = getelementptr inbounds nuw i8, ptr %11, i64 8
  store ptr %13, ptr %14, align 8
  %15 = tail call i64 @strlen(ptr noundef nonnull dereferenceable(1) %10) #13
  %16 = trunc i64 %15 to i32
  %17 = icmp sgt i32 %16, 0
  br i1 %17, label %.lr.ph.preheader, label %thread-pre-split.thread

.lr.ph.preheader:                                 ; preds = %8
  %wide.trip.count = and i64 %15, 2147483647
  br label %.lr.ph

.lr.ph:                                           ; preds = %71, %.lr.ph.preheader
  %indvars.iv = phi i64 [ 0, %.lr.ph.preheader ], [ %indvars.iv.next, %71 ]
  %18 = getelementptr inbounds nuw i8, ptr %10, i64 %indvars.iv
  %19 = load i8, ptr %18, align 1
  switch i8 %19, label %71 [
    i8 48, label %20
    i8 63, label %20
    i8 49, label %44
  ]

20:                                               ; preds = %.lr.ph, %.lr.ph
  %21 = load i32, ptr %12, align 4
  %22 = load i32, ptr %11, align 8
  %23 = icmp eq i32 %21, %22
  br i1 %23, label %24, label %.Vec_IntGrow.exit10_crit_edge.i

.Vec_IntGrow.exit10_crit_edge.i:                  ; preds = %20
  %.pre.i = load ptr, ptr %14, align 8
  br label %.sink.split

24:                                               ; preds = %20
  %25 = icmp slt i32 %21, 16
  br i1 %25, label %26, label %33

26:                                               ; preds = %24
  %27 = load ptr, ptr %14, align 8
  %.not9.i.i = icmp eq ptr %27, null
  br i1 %.not9.i.i, label %30, label %28

28:                                               ; preds = %26
  %29 = tail call dereferenceable_or_null(64) ptr @realloc(ptr noundef nonnull %27, i64 noundef 64) #15
  br label %Vec_IntGrow.exit.i

30:                                               ; preds = %26
  %31 = tail call noalias dereferenceable_or_null(64) ptr @malloc(i64 noundef 64) #14
  br label %Vec_IntGrow.exit.i

Vec_IntGrow.exit.i:                               ; preds = %30, %28
  %32 = phi ptr [ %29, %28 ], [ %31, %30 ]
  store ptr %32, ptr %14, align 8
  store i32 16, ptr %11, align 8
  br label %.sink.split

33:                                               ; preds = %24
  %34 = shl nuw nsw i32 %21, 1
  %35 = load ptr, ptr %14, align 8
  %.not9.i9.i = icmp eq ptr %35, null
  %36 = zext nneg i32 %34 to i64
  %37 = shl nuw nsw i64 %36, 2
  br i1 %.not9.i9.i, label %40, label %38

38:                                               ; preds = %33
  %39 = tail call ptr @realloc(ptr noundef nonnull %35, i64 noundef %37) #15
  br label %42

40:                                               ; preds = %33
  %41 = tail call noalias ptr @malloc(i64 noundef %37) #14
  br label %42

42:                                               ; preds = %40, %38
  %43 = phi ptr [ %39, %38 ], [ %41, %40 ]
  store ptr %43, ptr %14, align 8
  store i32 %34, ptr %11, align 8
  br label %.sink.split

44:                                               ; preds = %.lr.ph
  %45 = load i32, ptr %12, align 4
  %46 = load i32, ptr %11, align 8
  %47 = icmp eq i32 %45, %46
  br i1 %47, label %48, label %.Vec_IntGrow.exit10_crit_edge.i38

.Vec_IntGrow.exit10_crit_edge.i38:                ; preds = %44
  %.pre.i40 = load ptr, ptr %14, align 8
  br label %.sink.split

48:                                               ; preds = %44
  %49 = icmp slt i32 %45, 16
  br i1 %49, label %50, label %57

50:                                               ; preds = %48
  %51 = load ptr, ptr %14, align 8
  %.not9.i.i42 = icmp eq ptr %51, null
  br i1 %.not9.i.i42, label %54, label %52

52:                                               ; preds = %50
  %53 = tail call dereferenceable_or_null(64) ptr @realloc(ptr noundef nonnull %51, i64 noundef 64) #15
  br label %Vec_IntGrow.exit.i43

54:                                               ; preds = %50
  %55 = tail call noalias dereferenceable_or_null(64) ptr @malloc(i64 noundef 64) #14
  br label %Vec_IntGrow.exit.i43

Vec_IntGrow.exit.i43:                             ; preds = %54, %52
  %56 = phi ptr [ %53, %52 ], [ %55, %54 ]
  store ptr %56, ptr %14, align 8
  store i32 16, ptr %11, align 8
  br label %.sink.split

57:                                               ; preds = %48
  %58 = shl nuw nsw i32 %45, 1
  %59 = load ptr, ptr %14, align 8
  %.not9.i9.i41 = icmp eq ptr %59, null
  %60 = zext nneg i32 %58 to i64
  %61 = shl nuw nsw i64 %60, 2
  br i1 %.not9.i9.i41, label %64, label %62

62:                                               ; preds = %57
  %63 = tail call ptr @realloc(ptr noundef nonnull %59, i64 noundef %61) #15
  br label %66

64:                                               ; preds = %57
  %65 = tail call noalias ptr @malloc(i64 noundef %61) #14
  br label %66

66:                                               ; preds = %64, %62
  %67 = phi ptr [ %63, %62 ], [ %65, %64 ]
  store ptr %67, ptr %14, align 8
  store i32 %58, ptr %11, align 8
  br label %.sink.split

.sink.split:                                      ; preds = %66, %Vec_IntGrow.exit.i43, %.Vec_IntGrow.exit10_crit_edge.i38, %42, %Vec_IntGrow.exit.i, %.Vec_IntGrow.exit10_crit_edge.i
  %.sink59 = phi i32 [ %21, %.Vec_IntGrow.exit10_crit_edge.i ], [ %21, %Vec_IntGrow.exit.i ], [ %21, %42 ], [ %45, %.Vec_IntGrow.exit10_crit_edge.i38 ], [ %45, %Vec_IntGrow.exit.i43 ], [ %45, %66 ]
  %.sink55 = phi ptr [ %.pre.i, %.Vec_IntGrow.exit10_crit_edge.i ], [ %32, %Vec_IntGrow.exit.i ], [ %43, %42 ], [ %.pre.i40, %.Vec_IntGrow.exit10_crit_edge.i38 ], [ %56, %Vec_IntGrow.exit.i43 ], [ %67, %66 ]
  %.sink = phi i32 [ 0, %.Vec_IntGrow.exit10_crit_edge.i ], [ 0, %Vec_IntGrow.exit.i ], [ 0, %42 ], [ 1, %.Vec_IntGrow.exit10_crit_edge.i38 ], [ 1, %Vec_IntGrow.exit.i43 ], [ 1, %66 ]
  %68 = add nsw i32 %.sink59, 1
  store i32 %68, ptr %12, align 4
  %69 = sext i32 %.sink59 to i64
  %70 = getelementptr inbounds i32, ptr %.sink55, i64 %69
  store i32 %.sink, ptr %70, align 4
  br label %71

71:                                               ; preds = %.sink.split, %.lr.ph
  %72 = load i8, ptr %18, align 1
  %73 = and i8 %72, -33
  %74 = add i8 %73, -65
  %or.cond45 = icmp ult i8 %74, 26
  %indvars.iv.next = add nuw nsw i64 %indvars.iv, 1
  %exitcond.not = icmp eq i64 %indvars.iv.next, %wide.trip.count
  %or.cond = select i1 %or.cond45, i1 true, i1 %exitcond.not
  br i1 %or.cond, label %thread-pre-split, label %.lr.ph, !llvm.loop !7

thread-pre-split:                                 ; preds = %71
  %.pr.pre = load ptr, ptr %6, align 8
  %.not.i = icmp eq ptr %.pr.pre, null
  br i1 %.not.i, label %Vec_StrFree.exit, label %thread-pre-split.thread

thread-pre-split.thread:                          ; preds = %8, %5, %thread-pre-split
  %.03152 = phi ptr [ %11, %thread-pre-split ], [ %11, %8 ], [ null, %5 ]
  %75 = phi ptr [ %.pr.pre, %thread-pre-split ], [ %.val, %8 ], [ %.val, %5 ]
  tail call void @free(ptr noundef nonnull %75) #16
  br label %Vec_StrFree.exit

Vec_StrFree.exit:                                 ; preds = %thread-pre-split, %thread-pre-split.thread
  %.03153 = phi ptr [ %11, %thread-pre-split ], [ %.03152, %thread-pre-split.thread ]
  tail call void @free(ptr noundef nonnull %3) #16
  br label %76

76:                                               ; preds = %2, %Vec_StrFree.exit
  %.0 = phi ptr [ %.03153, %Vec_StrFree.exit ], [ null, %2 ]
  ret ptr %.0
}